target datalayout = "e-m:e-p270:32:32-p271:32:32-p272:64:64-i64:64-i128:128-f80:128-n8:16:32:64-S128"
target triple = "x86_64-pc-linux-gnu"

%class.G1NUMA = type { ptr, i32, ptr, i32, i64, i64, ptr }

; Function Attrs: mustprogress nounwind uwtable
define hidden void @_ZN6G1NUMA17update_statisticsEN11G1NUMAStats13NodeDataItemsEjj(ptr noundef nonnull align 8 dereferenceable(56) %0, i32 noundef %1, i32 noundef %2, i32 noundef %3) #1 align 2 {
  %5 = alloca ptr, align 8
  %6 = alloca i32, align 4
  %7 = alloca i32, align 4
  %8 = alloca i32, align 4
  %9 = alloca i32, align 4
  store ptr %0, ptr %5, align 8
  store i32 %1, ptr %6, align 4
  store i32 %2, ptr %7, align 4
  store i32 %3, ptr %8, align 4
  %10 = load ptr, ptr %5, align 8
  %11 = getelementptr inbounds %class.G1NUMA, ptr %10, i32 0, i32 6
  %12 = load ptr, ptr %11, align 8
  %13 = icmp eq ptr %12, null
  br i1 %13, label %14, label %15

14:                                               ; preds = %4
  br label %31

15:                                               ; preds = %4
  %16 = load i32, ptr %7, align 4
  %17 = getelementptr inbounds %class.G1NUMA, ptr %10, i32 0, i32 3
  %18 = load i32, ptr %17, align 8
  %19 = icmp ult i32 %16, %18
  br i1 %19, label %20, label %22

20:                                               ; preds = %15
  %21 = load i32, ptr %7, align 4
  store i32 %21, ptr %9, align 4
  br label %25

22:                                               ; preds = %15
  %23 = getelementptr inbounds %class.G1NUMA, ptr %10, i32 0, i32 3
  %24 = load i32, ptr %23, align 8
  store i32 %24, ptr %9, align 4
  br label %25

25:                                               ; preds = %22, %20
  %26 = getelementptr inbounds %class.G1NUMA, ptr %10, i32 0, i32 6
  %27 = load ptr, ptr %26, align 8
  %28 = load i32, ptr %6, align 4
  %29 = load i32, ptr %9, align 4
  %30 = load i32, ptr %8, align 4
  call void @_ZN11G1NUMAStats6updateENS_13NodeDataItemsEjj(ptr noundef nonnull align 8 dereferenceable(32) %27, i32 noundef %28, i32 noundef %29, i32 noundef %30)
  br label %31

31:                                               ; preds = %25, %14
  ret void
}