; Function Attrs: mustprogress nounwind uwtable
define hidden void @_ZN6G1NUMA17update_statisticsEN11G1NUMAStats13NodeDataItemsEjj(ptr nocapture noundef nonnull readonly align 8 dereferenceable(56) %0, i32 noundef %1, i32 noundef %2, i32 noundef %3) local_unnamed_addr #1 align 2 {
  %5 = getelementptr inbounds i8, ptr %0, i64 48
  %6 = load ptr, ptr %5, align 8
  %7 = icmp eq ptr %6, null
  br i1 %7, label %11, label %8

8:                                                ; preds = %4
  %9 = getelementptr inbounds i8, ptr %0, i64 24
  %10 = load i32, ptr %9, align 8
  %. = tail call i32 @llvm.umin.i32(i32 %10, i32 %2)
  tail call void @_ZN11G1NUMAStats6updateENS_13NodeDataItemsEjj(ptr noundef nonnull align 8 dereferenceable(32) %6, i32 noundef %1, i32 noundef %., i32 noundef %3) #12
  br label %11

11:                                               ; preds = %4, %8
  ret void
}